target datalayout = "e-m:e-p270:32:32-p271:32:32-p272:64:64-i64:64-i128:128-f80:128-n8:16:32:64-S128"
target triple = "x86_64-pc-linux-gnu"

; Function Attrs: mustprogress nounwind uwtable
define dso_local noundef i32 @_ZN5clang13UnaryOperator21getOverloadedOperatorENS_17UnaryOperatorKindE(i32 noundef %0) #0 align 2 {
  %2 = alloca i32, align 4
  %3 = alloca i32, align 4
  store i32 %0, ptr %3, align 4
  %4 = load i32, ptr %3, align 4
  switch i32 %4, label %14 [
    i32 0, label %5
    i32 2, label %5
    i32 1, label %6
    i32 3, label %6
    i32 4, label %7
    i32 5, label %8
    i32 6, label %9
    i32 7, label %10
    i32 8, label %11
    i32 9, label %12
    i32 13, label %13
  ]

5:                                                ; preds = %1, %1
  store i32 37, ptr %2, align 4
  br label %15

6:                                                ; preds = %1, %1
  store i32 38, ptr %2, align 4
  br label %15

7:                                                ; preds = %1
  store i32 11, ptr %2, align 4
  br label %15

8:                                                ; preds = %1
  store i32 7, ptr %2, align 4
  br label %15

9:                                                ; preds = %1
  store i32 5, ptr %2, align 4
  br label %15

10:                                               ; preds = %1
  store i32 6, ptr %2, align 4
  br label %15

11:                                               ; preds = %1
  store i32 13, ptr %2, align 4
  br label %15

12:                                               ; preds = %1
  store i32 14, ptr %2, align 4
  br label %15

13:                                               ; preds = %1
  store i32 45, ptr %2, align 4
  br label %15

14:                                               ; preds = %1
  store i32 0, ptr %2, align 4
  br label %15

15:                                               ; preds = %14, %13, %12, %11, %10, %9, %8, %7, %6, %5
  %16 = load i32, ptr %2, align 4
  ret i32 %16
}